target datalayout = "e-m:e-p270:32:32-p271:32:32-p272:64:64-i64:64-i128:128-f80:128-n8:16:32:64-S128"
target triple = "x86_64-pc-linux-gnu"

%class.symbol = type { ptr }
%"class.spacer::pob" = type { i32, %class.ref, ptr, %class.obj_ref, %class.ref_vector, %class.obj_ref, i64, i32, %class.scoped_ptr, %class.ptr_vector.0, %class.ptr_vector.2, i32, %class.obj_ref, i32, %class.scoped_ptr.4 }
%class.ref = type { ptr }
%class.ref_vector = type { %class.ref_vector_core }
%class.ref_vector_core = type { %class.ref_manager_wrapper, %class.ptr_vector }
%class.ref_manager_wrapper = type { ptr }
%class.ptr_vector = type { %class.vector }
%class.vector = type { ptr }
%class.scoped_ptr = type { ptr }
%class.ptr_vector.0 = type { %class.vector.1 }
%class.vector.1 = type { ptr }
%class.ptr_vector.2 = type { %class.vector.3 }
%class.vector.3 = type { ptr }
%class.obj_ref = type { ptr, ptr }
%class.scoped_ptr.4 = type { ptr }
%"class.spacer::pred_transformer" = type { ptr, ptr, ptr, %class.obj_ref.5, %class.ref_vector.6, %class.ptr_vector.11, %"class.spacer::pred_transformer::pt_rules", %class.ptr_vector.18, %class.scoped_ptr.20, %class.ref.21, %"class.spacer::pred_transformer::pob_manager", %"class.spacer::pred_transformer::frames", %class.ref_vector_core.30, i32, %class.ref_vector.34, %class.obj_ref, %class.obj_ref, %class.obj_ref.39, %class.obj_ref.39, i8, %class.ptr_vector.9, %"struct.spacer::pred_transformer::stats", %class.stopwatch, %class.stopwatch, %class.stopwatch, %class.stopwatch, i8, [7 x i8], %"class.spacer::pred_transformer::cluster_db" }
%class.obj_ref.5 = type { ptr, ptr }
%class.ref_vector.6 = type { %class.ref_vector_core.7 }
%class.ref_vector_core.7 = type { %class.ref_manager_wrapper.8, %class.ptr_vector.9 }
%class.ref_manager_wrapper.8 = type { ptr }
%class.ptr_vector.11 = type { %class.vector.12 }
%class.vector.12 = type { ptr }
%"class.spacer::pred_transformer::pt_rules" = type { %class.obj_map, %class.obj_map.13 }
%class.obj_map = type { %class.core_hashtable }
%class.core_hashtable = type <{ ptr, i32, i32, i32, [4 x i8] }>
%class.obj_map.13 = type { %class.core_hashtable.14 }
%class.core_hashtable.14 = type <{ ptr, i32, i32, i32, [4 x i8] }>
%class.ptr_vector.18 = type { %class.vector.19 }
%class.vector.19 = type { ptr }
%class.scoped_ptr.20 = type { ptr }
%class.ref.21 = type { ptr }
%"class.spacer::pred_transformer::pob_manager" = type { ptr, %class.obj_map.22, %class.ref_vector_core.27 }
%class.obj_map.22 = type { %class.core_hashtable.23 }
%class.core_hashtable.23 = type <{ ptr, i32, i32, i32, [4 x i8] }>
%class.ref_vector_core.27 = type { %class.ptr_vector.0 }
%"class.spacer::pred_transformer::frames" = type <{ ptr, %class.ref_vector_core.28, %class.ref_vector_core.28, %class.ref_vector_core.28, i32, i8, [3 x i8] }>
%class.ref_vector_core.28 = type { %class.ptr_vector.2 }
%class.ref_vector_core.30 = type { %class.ptr_vector.32 }
%class.ptr_vector.32 = type { %class.vector.33 }
%class.vector.33 = type { ptr }
%class.ref_vector.34 = type { %class.ref_vector_core.35 }
%class.ref_vector_core.35 = type { %class.ref_manager_wrapper.36, %class.ptr_vector.37 }
%class.ref_manager_wrapper.36 = type { ptr }
%class.ptr_vector.37 = type { %class.vector.38 }
%class.vector.38 = type { ptr }
%class.obj_ref.39 = type { ptr, ptr }
%class.ptr_vector.9 = type { %class.vector.10 }
%class.vector.10 = type { ptr }
%"struct.spacer::pred_transformer::stats" = type { i32, i32, i32, i32, i32, i32 }
%class.stopwatch = type <{ %"class.std::chrono::time_point", %"class.std::chrono::duration", i8, [7 x i8] }>
%"class.std::chrono::time_point" = type { %"class.std::chrono::duration" }
%"class.std::chrono::duration" = type { i64 }
%"class.spacer::pred_transformer::cluster_db" = type <{ %class.ref_vector_core.40, i32, [4 x i8] }>
%class.ref_vector_core.40 = type { %class.ptr_vector.42 }
%class.ptr_vector.42 = type { %class.vector.43 }
%class.vector.43 = type { ptr }
%"class.spacer::pred_transformer::pt_rule" = type { ptr, %class.obj_ref, %class.ptr_vector, %class.ref_vector, %class.obj_ref.39 }
%"struct.obj_map<const datalog::rule, spacer::pred_transformer::pt_rule *>::key_data" = type { ptr, ptr }
%"class.obj_map<const datalog::rule, spacer::pred_transformer::pt_rule *>::obj_map_entry" = type { %"struct.obj_map<const datalog::rule, spacer::pred_transformer::pt_rule *>::key_data" }
%"class.datalog::rule" = type { %"class.datalog::accounted_object.base", ptr, ptr, i32, i32, i32, i32, %class.symbol, [0 x ptr] }
%"class.datalog::accounted_object.base" = type <{ ptr, ptr, %"struct.datalog::costs", %"struct.datalog::costs", i8 }>
%"struct.datalog::costs" = type { i32, i32 }

; Function Attrs: mustprogress nounwind uwtable
define linkonce_odr hidden void @_ZN7obj_mapIKN7datalog4ruleEPN6spacer16pred_transformer7pt_ruleEE8key_dataC2EPS2_(ptr noundef nonnull align 8 dereferenceable(16) %0, ptr noundef %1) unnamed_addr #5 comdat align 2 {
  %3 = alloca ptr, align 8
  %4 = alloca ptr, align 8
  store ptr %0, ptr %3, align 8, !tbaa !453
  store ptr %1, ptr %4, align 8, !tbaa !204
  %5 = load ptr, ptr %3, align 8
  %6 = getelementptr inbounds nuw %"struct.obj_map<const datalog::rule, spacer::pred_transformer::pt_rule *>::key_data", ptr %5, i32 0, i32 0
  %7 = load ptr, ptr %4, align 8, !tbaa !204
  store ptr %7, ptr %6, align 8, !tbaa !1156
  %8 = getelementptr inbounds nuw %"struct.obj_map<const datalog::rule, spacer::pred_transformer::pt_rule *>::key_data", ptr %5, i32 0, i32 1
  store ptr null, ptr %8, align 8, !tbaa !455
  ret void
}

; Function Attrs: mustprogress nounwind uwtable
define linkonce_odr hidden noundef nonnull align 8 dereferenceable(16) ptr @_ZN7obj_mapIKN7datalog4ruleEPN6spacer16pred_transformer7pt_ruleEE13obj_map_entry8get_dataEv(ptr noundef nonnull align 8 dereferenceable(16) %0) #5 comdat align 2 {
  %2 = alloca ptr, align 8
  store ptr %0, ptr %2, align 8, !tbaa !1149
  %3 = load ptr, ptr %2, align 8
  %4 = getelementptr inbounds nuw %"class.obj_map<const datalog::rule, spacer::pred_transformer::pt_rule *>::obj_map_entry", ptr %3, i32 0, i32 0
  ret ptr %4
}

; Function Attrs: mustprogress uwtable
define linkonce_odr hidden noundef ptr @_ZNK7obj_mapIKN7datalog4ruleEPN6spacer16pred_transformer7pt_ruleEE9find_coreEPS2_(ptr noundef nonnull align 8 dereferenceable(24) %0, ptr noundef %1) #4 comdat align 2 {
  %3 = alloca ptr, align 8
  %4 = alloca ptr, align 8
  %5 = alloca %"struct.obj_map<const datalog::rule, spacer::pred_transformer::pt_rule *>::key_data", align 8
  store ptr %0, ptr %3, align 8, !tbaa !403
  store ptr %1, ptr %4, align 8, !tbaa !204
  %6 = load ptr, ptr %3, align 8
  %7 = getelementptr inbounds nuw %class.obj_map, ptr %6, i32 0, i32 0
  call void @llvm.lifetime.start.p0(i64 16, ptr %5) #3
  %8 = load ptr, ptr %4, align 8, !tbaa !204
  call void @_ZN7obj_mapIKN7datalog4ruleEPN6spacer16pred_transformer7pt_ruleEE8key_dataC2EPS2_(ptr noundef nonnull align 8 dereferenceable(16) %5, ptr noundef %8)
  %9 = call noundef ptr @_ZNK14core_hashtableIN7obj_mapIKN7datalog4ruleEPN6spacer16pred_transformer7pt_ruleEE13obj_map_entryE8obj_hashINS8_8key_dataEE10default_eqISB_EE9find_coreERKSB_(ptr noundef nonnull align 8 dereferenceable(20) %7, ptr noundef nonnull align 8 dereferenceable(16) %5)
  call void @llvm.lifetime.end.p0(i64 16, ptr %5) #3
  ret ptr %9
}

; Function Attrs: mustprogress nounwind uwtable
define linkonce_odr hidden noundef ptr @_ZNK7obj_refI4expr11ast_managerEcvPS0_Ev(ptr noundef nonnull align 8 dereferenceable(16) %0) #5 comdat align 2 {
  %2 = alloca ptr, align 8
  store ptr %0, ptr %2, align 8, !tbaa !104
  %3 = load ptr, ptr %2, align 8
  %4 = getelementptr inbounds nuw %class.obj_ref, ptr %3, i32 0, i32 0
  %5 = load ptr, ptr %4, align 8, !tbaa !107
  ret ptr %5
}

; Function Attrs: mustprogress uwtable
define linkonce_odr hidden noundef zeroext i1 @_ZNK7obj_mapIKN7datalog4ruleEPN6spacer16pred_transformer7pt_ruleEE4findEPS2_RS6_(ptr noundef nonnull align 8 dereferenceable(24) %0, ptr noundef %1, ptr noundef nonnull align 8 dereferenceable(8) %2) #4 comdat align 2 {
  %4 = alloca ptr, align 8
  %5 = alloca ptr, align 8
  %6 = alloca ptr, align 8
  %7 = alloca ptr, align 8
  store ptr %0, ptr %4, align 8, !tbaa !403
  store ptr %1, ptr %5, align 8, !tbaa !204
  store ptr %2, ptr %6, align 8, !tbaa !399
  %8 = load ptr, ptr %4, align 8
  call void @llvm.lifetime.start.p0(i64 8, ptr %7) #3
  %9 = load ptr, ptr %5, align 8, !tbaa !204
  %10 = call noundef ptr @_ZNK7obj_mapIKN7datalog4ruleEPN6spacer16pred_transformer7pt_ruleEE9find_coreEPS2_(ptr noundef nonnull align 8 dereferenceable(24) %8, ptr noundef %9)
  store ptr %10, ptr %7, align 8, !tbaa !1149
  %11 = load ptr, ptr %7, align 8, !tbaa !1149
  %12 = icmp ne ptr %11, null
  br i1 %12, label %13, label %19

13:                                               ; preds = %3
  %14 = load ptr, ptr %7, align 8, !tbaa !1149
  %15 = call noundef nonnull align 8 dereferenceable(16) ptr @_ZN7obj_mapIKN7datalog4ruleEPN6spacer16pred_transformer7pt_ruleEE13obj_map_entry8get_dataEv(ptr noundef nonnull align 8 dereferenceable(16) %14)
  %16 = getelementptr inbounds nuw %"struct.obj_map<const datalog::rule, spacer::pred_transformer::pt_rule *>::key_data", ptr %15, i32 0, i32 1
  %17 = load ptr, ptr %16, align 8, !tbaa !455
  %18 = load ptr, ptr %6, align 8, !tbaa !399
  store ptr %17, ptr %18, align 8, !tbaa !397
  br label %19

19:                                               ; preds = %13, %3
  %20 = load ptr, ptr %7, align 8, !tbaa !1149
  %21 = icmp ne ptr null, %20
  call void @llvm.lifetime.end.p0(i64 8, ptr %7) #3
  ret i1 %21
}

; Function Attrs: mustprogress uwtable
define linkonce_odr hidden noundef ptr @_ZNK6spacer16pred_transformer7pt_rule5transEv(ptr noundef nonnull align 8 dereferenceable(64) %0) #4 comdat align 2 {
  %2 = alloca ptr, align 8
  store ptr %0, ptr %2, align 8, !tbaa !397
  %3 = load ptr, ptr %2, align 8
  %4 = getelementptr inbounds nuw %"class.spacer::pred_transformer::pt_rule", ptr %3, i32 0, i32 1
  %5 = call noundef ptr @_ZNK7obj_refI4expr11ast_managerEcvPS0_Ev(ptr noundef nonnull align 8 dereferenceable(16) %4)
  ret ptr %5
}

; Function Attrs: mustprogress uwtable
define linkonce_odr hidden noundef zeroext i1 @_ZN6spacer16pred_transformer8pt_rules12find_by_ruleERKN7datalog4ruleERPNS0_7pt_ruleE(ptr noundef nonnull align 8 dereferenceable(48) %0, ptr noundef nonnull align 8 dereferenceable(80) %1, ptr noundef nonnull align 8 dereferenceable(8) %2) #4 comdat align 2 {
  %4 = alloca ptr, align 8
  %5 = alloca ptr, align 8
  %6 = alloca ptr, align 8
  store ptr %0, ptr %4, align 8, !tbaa !395
  store ptr %1, ptr %5, align 8, !tbaa !204
  store ptr %2, ptr %6, align 8, !tbaa !399
  %7 = load ptr, ptr %4, align 8
  %8 = getelementptr inbounds nuw %"class.spacer::pred_transformer::pt_rules", ptr %7, i32 0, i32 0
  %9 = load ptr, ptr %5, align 8, !tbaa !204
  %10 = load ptr, ptr %6, align 8, !tbaa !399
  %11 = call noundef zeroext i1 @_ZNK7obj_mapIKN7datalog4ruleEPN6spacer16pred_transformer7pt_ruleEE4findEPS2_RS6_(ptr noundef nonnull align 8 dereferenceable(24) %8, ptr noundef %9, ptr noundef nonnull align 8 dereferenceable(8) %10)
  ret i1 %11
}

; Function Attrs: mustprogress nounwind uwtable
define linkonce_odr hidden noundef ptr @_ZNK7obj_refI4expr11ast_managerE3getEv(ptr noundef nonnull align 8 dereferenceable(16) %0) #5 comdat align 2 {
  %2 = alloca ptr, align 8
  store ptr %0, ptr %2, align 8, !tbaa !104
  %3 = load ptr, ptr %2, align 8
  %4 = getelementptr inbounds nuw %class.obj_ref, ptr %3, i32 0, i32 0
  %5 = load ptr, ptr %4, align 8, !tbaa !107
  ret ptr %5
}

; Function Attrs: mustprogress nounwind uwtable
define linkonce_odr hidden noundef i32 @_ZNK7datalog4rule27get_uninterpreted_tail_sizeEv(ptr noundef nonnull align 8 dereferenceable(80) %0) #5 comdat align 2 {
  %2 = alloca ptr, align 8
  store ptr %0, ptr %2, align 8, !tbaa !204
  %3 = load ptr, ptr %2, align 8
  %4 = getelementptr inbounds nuw %"class.datalog::rule", ptr %3, i32 0, i32 6
  %5 = load i32, ptr %4, align 4, !tbaa !526
  ret i32 %5
}

; Function Attrs: mustprogress uwtable
define linkonce_odr hidden noundef ptr @_ZN6spacer16pred_transformer14get_transitionERKN7datalog4ruleE(ptr noundef nonnull align 8 dereferenceable(472) %0, ptr noundef nonnull align 8 dereferenceable(80) %1) #4 comdat align 2 {
  %3 = alloca ptr, align 8
  %4 = alloca ptr, align 8
  %5 = alloca ptr, align 8
  store ptr %0, ptr %3, align 8, !tbaa !8
  store ptr %1, ptr %4, align 8, !tbaa !204
  %6 = load ptr, ptr %3, align 8
  call void @llvm.lifetime.start.p0(i64 8, ptr %5) #3
  store ptr null, ptr %5, align 8, !tbaa !397
  %7 = getelementptr inbounds nuw %"class.spacer::pred_transformer", ptr %6, i32 0, i32 6
  %8 = load ptr, ptr %4, align 8, !tbaa !204
  %9 = call noundef zeroext i1 @_ZN6spacer16pred_transformer8pt_rules12find_by_ruleERKN7datalog4ruleERPNS0_7pt_ruleE(ptr noundef nonnull align 8 dereferenceable(48) %7, ptr noundef nonnull align 8 dereferenceable(80) %8, ptr noundef nonnull align 8 dereferenceable(8) %5)
  br i1 %9, label %10, label %13

10:                                               ; preds = %2
  %11 = load ptr, ptr %5, align 8, !tbaa !397
  %12 = call noundef ptr @_ZNK6spacer16pred_transformer7pt_rule5transEv(ptr noundef nonnull align 8 dereferenceable(64) %11)
  br label %14

13:                                               ; preds = %2
  br label %14

14:                                               ; preds = %13, %10
  %15 = phi ptr [ %12, %10 ], [ null, %13 ]
  call void @llvm.lifetime.end.p0(i64 8, ptr %5) #3
  ret ptr %15
}

; Function Attrs: mustprogress nounwind uwtable
define linkonce_odr hidden noundef nonnull align 8 dereferenceable(472) ptr @_ZNK6spacer3pob2ptEv(ptr noundef nonnull align 8 dereferenceable(152) %0) #5 comdat align 2 {
  %2 = alloca ptr, align 8
  store ptr %0, ptr %2, align 8, !tbaa !3
  %3 = load ptr, ptr %2, align 8
  %4 = getelementptr inbounds nuw %"class.spacer::pob", ptr %3, i32 0, i32 2
  %5 = load ptr, ptr %4, align 8, !tbaa !36
  ret ptr %5
}

; Function Attrs: mustprogress uwtable
define linkonce_odr hidden noundef ptr @_ZNK6spacer3pob4postEv(ptr noundef nonnull align 8 dereferenceable(152) %0) #4 comdat align 2 {
  %2 = alloca ptr, align 8
  store ptr %0, ptr %2, align 8, !tbaa !3
  %3 = load ptr, ptr %2, align 8
  %4 = getelementptr inbounds nuw %"class.spacer::pob", ptr %3, i32 0, i32 3
  %5 = call noundef ptr @_ZNK7obj_refI4expr11ast_managerE3getEv(ptr noundef nonnull align 8 dereferenceable(16) %4)
  ret ptr %5
}

; Function Attrs: mustprogress uwtable
define hidden noundef i32 @_ZN6spacer7context14handle_unknownERNS_3pobEPKN7datalog4ruleER5model(ptr noundef nonnull align 8 dereferenceable(712) %0, ptr noundef nonnull align 8 dereferenceable(152) %1, ptr noundef %2, ptr noundef nonnull align 8 dereferenceable(160) %3) #4 align 2 {
  %5 = alloca i32, align 4
  %6 = alloca ptr, align 8
  %7 = alloca ptr, align 8
  %8 = alloca ptr, align 8
  %9 = alloca ptr, align 8
  store ptr %0, ptr %6, align 8, !tbaa !129
  store ptr %1, ptr %7, align 8, !tbaa !3
  store ptr %2, ptr %8, align 8, !tbaa !204
  store ptr %3, ptr %9, align 8, !tbaa !218
  %10 = load ptr, ptr %6, align 8
  %11 = load ptr, ptr %8, align 8, !tbaa !204
  %12 = icmp eq ptr %11, null
  br i1 %12, label %13, label %23

13:                                               ; preds = %4
  %14 = load ptr, ptr %9, align 8, !tbaa !218
  %15 = load ptr, ptr %7, align 8, !tbaa !3
  %16 = call noundef ptr @_ZNK6spacer3pob4postEv(ptr noundef nonnull align 8 dereferenceable(152) %15)
  %17 = call noundef zeroext i1 @_ZN5model7is_trueEP4expr(ptr noundef nonnull align 8 dereferenceable(160) %14, ptr noundef %16)
  br i1 %17, label %18, label %22

18:                                               ; preds = %13
  %19 = load ptr, ptr %9, align 8, !tbaa !218
  %20 = call noundef zeroext i1 @_ZN6spacer7context20mk_mdl_rf_consistentER5model(ptr noundef nonnull align 8 dereferenceable(712) %10, ptr noundef nonnull align 8 dereferenceable(160) %19)
  br i1 %20, label %21, label %22

21:                                               ; preds = %18
  store i32 1, ptr %5, align 4
  br label %47

22:                                               ; preds = %18, %13
  store i32 0, ptr %5, align 4
  br label %47

23:                                               ; preds = %4
  %24 = load ptr, ptr %9, align 8, !tbaa !218
  %25 = load ptr, ptr %7, align 8, !tbaa !3
  %26 = call noundef nonnull align 8 dereferenceable(472) ptr @_ZNK6spacer3pob2ptEv(ptr noundef nonnull align 8 dereferenceable(152) %25)
  %27 = load ptr, ptr %8, align 8, !tbaa !204
  %28 = call noundef ptr @_ZN6spacer16pred_transformer14get_transitionERKN7datalog4ruleE(ptr noundef nonnull align 8 dereferenceable(472) %26, ptr noundef nonnull align 8 dereferenceable(80) %27)
  %29 = call noundef zeroext i1 @_ZN5model7is_trueEP4expr(ptr noundef nonnull align 8 dereferenceable(160) %24, ptr noundef %28)
  br i1 %29, label %30, label %46

30:                                               ; preds = %23
  %31 = load ptr, ptr %9, align 8, !tbaa !218
  %32 = load ptr, ptr %7, align 8, !tbaa !3
  %33 = call noundef ptr @_ZNK6spacer3pob4postEv(ptr noundef nonnull align 8 dereferenceable(152) %32)
  %34 = call noundef zeroext i1 @_ZN5model7is_trueEP4expr(ptr noundef nonnull align 8 dereferenceable(160) %31, ptr noundef %33)
  br i1 %34, label %35, label %46

35:                                               ; preds = %30
  %36 = load ptr, ptr %8, align 8, !tbaa !204
  %37 = call noundef i32 @_ZNK7datalog4rule27get_uninterpreted_tail_sizeEv(ptr noundef nonnull align 8 dereferenceable(80) %36)
  %38 = icmp eq i32 %37, 0
  br i1 %38, label %39, label %46

39:                                               ; preds = %35
  %40 = load ptr, ptr %7, align 8, !tbaa !3
  %41 = call noundef nonnull align 8 dereferenceable(472) ptr @_ZNK6spacer3pob2ptEv(ptr noundef nonnull align 8 dereferenceable(152) %40)
  %42 = load ptr, ptr %8, align 8, !tbaa !204
  %43 = load ptr, ptr %9, align 8, !tbaa !218
  %44 = call noundef zeroext i1 @_ZN6spacer16pred_transformer20mk_mdl_rf_consistentEPKN7datalog4ruleER5model(ptr noundef nonnull align 8 dereferenceable(472) %41, ptr noundef %42, ptr noundef nonnull align 8 dereferenceable(160) %43)
  br i1 %44, label %45, label %46

45:                                               ; preds = %39
  store i32 1, ptr %5, align 4
  br label %47

46:                                               ; preds = %39, %35, %30, %23
  store i32 0, ptr %5, align 4
  br label %47

47:                                               ; preds = %46, %45, %22, %21
  %48 = load i32, ptr %5, align 4
  ret i32 %48
}