; Function Attrs: mustprogress uwtable
define hidden noundef range(i32 0, 2) i32 @_ZN6spacer7context14handle_unknownERNS_3pobEPKN7datalog4ruleER5model(ptr noundef nonnull readonly align 8 captures(none) dereferenceable(712) %0, ptr noundef nonnull readonly align 8 captures(none) dereferenceable(152) %1, ptr noundef %2, ptr noundef nonnull align 8 dereferenceable(160) %3) local_unnamed_addr #3 align 2 {
  %5 = alloca %"struct.obj_map<const datalog::rule, spacer::pred_transformer::pt_rule *>::key_data", align 8
  %6 = icmp eq ptr %2, null
  br i1 %6, label %7, label %14

7:                                                ; preds = %4
  %8 = getelementptr inbounds nuw i8, ptr %1, i64 24
  %9 = load ptr, ptr %8, align 8, !tbaa !93
  %10 = tail call noundef zeroext i1 @_ZN5model7is_trueEP4expr(ptr noundef nonnull align 8 dereferenceable(160) %3, ptr noundef %9)
  br i1 %10, label %11, label %13

11:                                               ; preds = %7
  %12 = tail call noundef zeroext i1 @_ZN6spacer7context20mk_mdl_rf_consistentER5model(ptr noundef nonnull align 8 dereferenceable(712) %0, ptr noundef nonnull align 8 dereferenceable(160) %3)
  br i1 %12, label %39, label %13

13:                                               ; preds = %11, %7
  br label %39

14:                                               ; preds = %4
  %15 = getelementptr inbounds nuw i8, ptr %1, i64 16
  %16 = load ptr, ptr %15, align 8, !tbaa !111
  %17 = getelementptr inbounds nuw i8, ptr %16, i64 64
  call void @llvm.lifetime.start.p0(i64 16, ptr nonnull %5) #28
  store ptr %2, ptr %5, align 8, !tbaa !392
  %18 = getelementptr inbounds nuw i8, ptr %5, i64 8
  store ptr null, ptr %18, align 8, !tbaa !395
  %19 = call noundef ptr @_ZNK14core_hashtableIN7obj_mapIKN7datalog4ruleEPN6spacer16pred_transformer7pt_ruleEE13obj_map_entryE8obj_hashINS8_8key_dataEE10default_eqISB_EE9find_coreERKSB_(ptr noundef nonnull align 8 dereferenceable(48) %17, ptr noundef nonnull align 8 dereferenceable(16) %5)
  call void @llvm.lifetime.end.p0(i64 16, ptr nonnull %5) #28
  %.not.i = icmp eq ptr %19, null
  br i1 %.not.i, label %_ZN6spacer16pred_transformer14get_transitionERKN7datalog4ruleE.exit, label %20

20:                                               ; preds = %14
  %21 = getelementptr inbounds nuw i8, ptr %19, i64 8
  %22 = load ptr, ptr %21, align 8, !tbaa !395
  %23 = getelementptr inbounds nuw i8, ptr %22, i64 8
  %24 = load ptr, ptr %23, align 8, !tbaa !93
  br label %_ZN6spacer16pred_transformer14get_transitionERKN7datalog4ruleE.exit

_ZN6spacer16pred_transformer14get_transitionERKN7datalog4ruleE.exit: ; preds = %14, %20
  %25 = phi ptr [ %24, %20 ], [ null, %14 ]
  %26 = call noundef zeroext i1 @_ZN5model7is_trueEP4expr(ptr noundef nonnull align 8 dereferenceable(160) %3, ptr noundef %25)
  br i1 %26, label %27, label %38

27:                                               ; preds = %_ZN6spacer16pred_transformer14get_transitionERKN7datalog4ruleE.exit
  %28 = getelementptr inbounds nuw i8, ptr %1, i64 24
  %29 = load ptr, ptr %28, align 8, !tbaa !93
  %30 = call noundef zeroext i1 @_ZN5model7is_trueEP4expr(ptr noundef nonnull align 8 dereferenceable(160) %3, ptr noundef %29)
  br i1 %30, label %31, label %38

31:                                               ; preds = %27
  %32 = getelementptr inbounds nuw i8, ptr %2, i64 68
  %33 = load i32, ptr %32, align 4, !tbaa !509
  %34 = icmp eq i32 %33, 0
  br i1 %34, label %35, label %38

35:                                               ; preds = %31
  %36 = load ptr, ptr %15, align 8, !tbaa !111
  %37 = call noundef zeroext i1 @_ZN6spacer16pred_transformer20mk_mdl_rf_consistentEPKN7datalog4ruleER5model(ptr noundef nonnull align 8 dereferenceable(472) %36, ptr noundef nonnull %2, ptr noundef nonnull align 8 dereferenceable(160) %3)
  br i1 %37, label %39, label %38

38:                                               ; preds = %35, %31, %27, %_ZN6spacer16pred_transformer14get_transitionERKN7datalog4ruleE.exit
  br label %39

39:                                               ; preds = %35, %11, %38, %13
  %.0 = phi i32 [ 0, %13 ], [ 0, %38 ], [ 1, %11 ], [ 1, %35 ]
  ret i32 %.0
}